target datalayout = "e-m:e-p270:32:32-p271:32:32-p272:64:64-i64:64-i128:128-f80:128-n8:16:32:64-S128"
target triple = "x86_64-pc-linux-gnu"

%"class.std::__cxx11::basic_string" = type { %"struct.std::__cxx11::basic_string<char>::_Alloc_hider", i64, %union.anon }
%"struct.std::__cxx11::basic_string<char>::_Alloc_hider" = type { ptr }
%union.anon = type { i64, [8 x i8] }
%"struct.open_spiel::y_game::Move" = type { i8, i8, i16 }
%"class.std::shared_ptr" = type { %"class.std::__shared_ptr" }
%"class.std::__shared_ptr" = type { ptr, %"class.std::__shared_count" }
%"class.std::__shared_count" = type { ptr }
%"class.open_spiel::y_game::YState" = type <{ %"class.open_spiel::State.base", [4 x i8], %"class.std::vector.14", i8, i8, [2 x i8], i32, i32, %"struct.open_spiel::y_game::Move", ptr, i8, [7 x i8] }>
%"class.open_spiel::State.base" = type <{ ptr, %"class.std::shared_ptr", i32, i32, %"class.std::vector.9", i32 }>
%"class.std::vector.9" = type { %"struct.std::_Vector_base.10" }
%"struct.std::_Vector_base.10" = type { %"struct.std::_Vector_base<open_spiel::State::PlayerAction, std::allocator<open_spiel::State::PlayerAction>>::_Vector_impl" }
%"struct.std::_Vector_base<open_spiel::State::PlayerAction, std::allocator<open_spiel::State::PlayerAction>>::_Vector_impl" = type { %"struct.std::_Vector_base<open_spiel::State::PlayerAction, std::allocator<open_spiel::State::PlayerAction>>::_Vector_impl_data" }
%"struct.std::_Vector_base<open_spiel::State::PlayerAction, std::allocator<open_spiel::State::PlayerAction>>::_Vector_impl_data" = type { ptr, ptr, ptr }
%"class.std::vector.14" = type { %"struct.std::_Vector_base.15" }
%"struct.std::_Vector_base.15" = type { %"struct.std::_Vector_base<open_spiel::y_game::YState::Cell, std::allocator<open_spiel::y_game::YState::Cell>>::_Vector_impl" }
%"struct.std::_Vector_base<open_spiel::y_game::YState::Cell, std::allocator<open_spiel::y_game::YState::Cell>>::_Vector_impl" = type { %"struct.std::_Vector_base<open_spiel::y_game::YState::Cell, std::allocator<open_spiel::y_game::YState::Cell>>::_Vector_impl_data" }
%"struct.std::_Vector_base<open_spiel::y_game::YState::Cell, std::allocator<open_spiel::y_game::YState::Cell>>::_Vector_impl_data" = type { ptr, ptr, ptr }

; Function Attrs: mustprogress nounwind uwtable
define noundef i32 @_ZN10open_spiel6y_game6CalcXYEiii(i32 noundef %0, i32 noundef %1, i32 noundef %2) #4 {
  %4 = alloca i32, align 4
  %5 = alloca i32, align 4
  %6 = alloca i32, align 4
  %7 = alloca i32, align 4
  store i32 %0, ptr %5, align 4
  store i32 %1, ptr %6, align 4
  store i32 %2, ptr %7, align 4
  %8 = load i32, ptr %5, align 4
  %9 = icmp sge i32 %8, 0
  br i1 %9, label %10, label %33

10:                                               ; preds = %3
  %11 = load i32, ptr %6, align 4
  %12 = icmp sge i32 %11, 0
  br i1 %12, label %13, label %33

13:                                               ; preds = %10
  %14 = load i32, ptr %5, align 4
  %15 = load i32, ptr %7, align 4
  %16 = icmp slt i32 %14, %15
  br i1 %16, label %17, label %33

17:                                               ; preds = %13
  %18 = load i32, ptr %6, align 4
  %19 = load i32, ptr %7, align 4
  %20 = icmp slt i32 %18, %19
  br i1 %20, label %21, label %33

21:                                               ; preds = %17
  %22 = load i32, ptr %5, align 4
  %23 = load i32, ptr %6, align 4
  %24 = add nsw i32 %22, %23
  %25 = load i32, ptr %7, align 4
  %26 = icmp slt i32 %24, %25
  br i1 %26, label %27, label %33

27:                                               ; preds = %21
  %28 = load i32, ptr %5, align 4
  %29 = load i32, ptr %6, align 4
  %30 = load i32, ptr %7, align 4
  %31 = mul nsw i32 %29, %30
  %32 = add nsw i32 %28, %31
  store i32 %32, ptr %4, align 4
  br label %34

33:                                               ; preds = %21, %17, %13, %10, %3
  store i32 -2, ptr %4, align 4
  br label %34

34:                                               ; preds = %33, %27
  %35 = load i32, ptr %4, align 4
  ret i32 %35
}

; Function Attrs: mustprogress nounwind uwtable
define linkonce_odr void @_ZN10open_spiel6y_game4MoveC2Eiii(ptr noundef nonnull align 2 dereferenceable(4) %0, i32 noundef %1, i32 noundef %2, i32 noundef %3) unnamed_addr #4 comdat align 2 {
  %5 = alloca ptr, align 8
  %6 = alloca i32, align 4
  %7 = alloca i32, align 4
  %8 = alloca i32, align 4
  store ptr %0, ptr %5, align 8
  store i32 %1, ptr %6, align 4
  store i32 %2, ptr %7, align 4
  store i32 %3, ptr %8, align 4
  %9 = load ptr, ptr %5, align 8
  %10 = getelementptr inbounds nuw %"struct.open_spiel::y_game::Move", ptr %9, i32 0, i32 0
  %11 = load i32, ptr %6, align 4
  %12 = trunc i32 %11 to i8
  store i8 %12, ptr %10, align 2
  %13 = getelementptr inbounds nuw %"struct.open_spiel::y_game::Move", ptr %9, i32 0, i32 1
  %14 = load i32, ptr %7, align 4
  %15 = trunc i32 %14 to i8
  store i8 %15, ptr %13, align 1
  %16 = getelementptr inbounds nuw %"struct.open_spiel::y_game::Move", ptr %9, i32 0, i32 2
  %17 = load i32, ptr %6, align 4
  %18 = load i32, ptr %7, align 4
  %19 = load i32, ptr %8, align 4
  %20 = call noundef i32 @_ZN10open_spiel6y_game6CalcXYEiii(i32 noundef %17, i32 noundef %18, i32 noundef %19)
  %21 = trunc i32 %20 to i16
  store i16 %21, ptr %16, align 2
  ret void
}

; Function Attrs: mustprogress uwtable
define i32 @_ZNK10open_spiel6y_game6YState12ActionToMoveEl(ptr noundef nonnull align 8 dereferenceable(113) %0, i64 noundef %1) #5 align 2 {
  %3 = alloca %"struct.open_spiel::y_game::Move", align 2
  %4 = alloca ptr, align 8
  %5 = alloca i64, align 8
  store ptr %0, ptr %4, align 8
  store i64 %1, ptr %5, align 8
  %6 = load ptr, ptr %4, align 8
  %7 = load i64, ptr %5, align 8
  %8 = getelementptr inbounds nuw %"class.open_spiel::y_game::YState", ptr %6, i32 0, i32 6
  %9 = load i32, ptr %8, align 4
  %10 = sext i32 %9 to i64
  %11 = srem i64 %7, %10
  %12 = trunc i64 %11 to i32
  %13 = load i64, ptr %5, align 8
  %14 = getelementptr inbounds nuw %"class.open_spiel::y_game::YState", ptr %6, i32 0, i32 6
  %15 = load i32, ptr %14, align 4
  %16 = sext i32 %15 to i64
  %17 = sdiv i64 %13, %16
  %18 = trunc i64 %17 to i32
  %19 = getelementptr inbounds nuw %"class.open_spiel::y_game::YState", ptr %6, i32 0, i32 6
  %20 = load i32, ptr %19, align 4
  call void @_ZN10open_spiel6y_game4MoveC2Eiii(ptr noundef nonnull align 2 dereferenceable(4) %3, i32 noundef %12, i32 noundef %18, i32 noundef %20)
  %21 = load i32, ptr %3, align 2
  ret i32 %21
}

; Function Attrs: mustprogress uwtable
define void @_ZNK10open_spiel6y_game6YState14ActionToStringB5cxx11Eil(ptr dead_on_unwind noalias writable sret(%"class.std::__cxx11::basic_string") align 8 %0, ptr noundef nonnull align 8 dereferenceable(113) %1, i32 noundef %2, i64 noundef %3) unnamed_addr #5 align 2 {
  %5 = alloca ptr, align 8
  %6 = alloca ptr, align 8
  %7 = alloca i32, align 4
  %8 = alloca i64, align 8
  %9 = alloca %"struct.open_spiel::y_game::Move", align 2
  store ptr %0, ptr %5, align 8
  store ptr %1, ptr %6, align 8
  store i32 %2, ptr %7, align 4
  store i64 %3, ptr %8, align 8
  %10 = load ptr, ptr %6, align 8
  %11 = load i64, ptr %8, align 8
  %12 = call i32 @_ZNK10open_spiel6y_game6YState12ActionToMoveEl(ptr noundef nonnull align 8 dereferenceable(113) %10, i64 noundef %11)
  store i32 %12, ptr %9, align 2
  call void @_ZNK10open_spiel6y_game4Move8ToStringB5cxx11Ev(ptr dead_on_unwind writable sret(%"class.std::__cxx11::basic_string") align 8 %0, ptr noundef nonnull align 2 dereferenceable(4) %9)
  ret void
}