; Function Attrs: mustprogress uwtable
define void @_ZNK10open_spiel6y_game6YState14ActionToStringB5cxx11Eil(ptr dead_on_unwind noalias writable sret(%"class.std::__cxx11::basic_string") align 8 %0, ptr nocapture noundef nonnull readonly align 8 dereferenceable(113) %1, i32 %2, i64 noundef %3) unnamed_addr #4 align 2 {
  %5 = alloca %"struct.open_spiel::y_game::Move", align 4
  %6 = getelementptr inbounds nuw i8, ptr %1, i64 92
  %7 = load i32, ptr %6, align 4
  %8 = sext i32 %7 to i64
  %9 = srem i64 %3, %8
  %10 = trunc nsw i64 %9 to i32
  %11 = sdiv i64 %3, %8
  %12 = trunc i64 %11 to i32
  %13 = or i32 %12, %10
  %or.cond.i.i.i = icmp sgt i32 %13, -1
  %14 = icmp sgt i32 %7, %10
  %or.cond17.i.i.i = and i1 %14, %or.cond.i.i.i
  %15 = icmp sgt i32 %7, %12
  %or.cond18.i.i.i = and i1 %15, %or.cond17.i.i.i
  %16 = add nuw nsw i32 %12, %10
  %17 = icmp slt i32 %16, %7
  %or.cond20.i.i.i = select i1 %or.cond18.i.i.i, i1 %17, i1 false
  %18 = mul nsw i32 %7, %12
  %19 = add nuw nsw i32 %18, %10
  %20 = shl i32 %19, 16
  %.sroa.3.0.insert.shift.i = select i1 %or.cond20.i.i.i, i32 %20, i32 -131072
  %.sroa.2.0.insert.ext.i = shl i32 %12, 8
  %.sroa.2.0.insert.shift.i = and i32 %.sroa.2.0.insert.ext.i, 65280
  %.sroa.0.0.insert.ext.i = and i32 %10, 255
  %.sroa.2.0.insert.insert.i = or disjoint i32 %.sroa.2.0.insert.shift.i, %.sroa.0.0.insert.ext.i
  %.sroa.0.0.insert.insert.i = or disjoint i32 %.sroa.2.0.insert.insert.i, %.sroa.3.0.insert.shift.i
  store i32 %.sroa.0.0.insert.insert.i, ptr %5, align 4
  call void @_ZNK10open_spiel6y_game4Move8ToStringB5cxx11Ev(ptr dead_on_unwind writable sret(%"class.std::__cxx11::basic_string") align 8 %0, ptr noundef nonnull align 2 dereferenceable(4) %5)
  ret void
}